target datalayout = "e-m:e-p270:32:32-p271:32:32-p272:64:64-i64:64-i128:128-f80:128-n8:16:32:64-S128"
target triple = "x86_64-unknown-linux-gnu"

%"class.QuantLib::CurveState" = type { ptr, i64, %"class.std::vector", %"class.std::vector" }
%"class.std::vector" = type { %"struct.std::_Vector_base" }
%"struct.std::_Vector_base" = type { %"struct.std::_Vector_base<double, std::allocator<double>>::_Vector_impl" }
%"struct.std::_Vector_base<double, std::allocator<double>>::_Vector_impl" = type { %"struct.std::_Vector_base<double, std::allocator<double>>::_Vector_impl_data" }
%"struct.std::_Vector_base<double, std::allocator<double>>::_Vector_impl_data" = type { ptr, ptr, ptr }

; Function Attrs: mustprogress nounwind uwtable
define linkonce_odr noundef nonnull align 8 dereferenceable(8) ptr @_ZNKSt6vectorIdSaIdEEixEm(ptr noundef nonnull align 8 dereferenceable(24) %this, i64 noundef %__n) #4 comdat align 2 {
entry:
  %this.addr = alloca ptr, align 8
  %__n.addr = alloca i64, align 8
  store ptr %this, ptr %this.addr, align 8, !tbaa !3
  store i64 %__n, ptr %__n.addr, align 8, !tbaa !7
  %this1 = load ptr, ptr %this.addr, align 8
  %_M_impl = getelementptr inbounds nuw %"struct.std::_Vector_base", ptr %this1, i32 0, i32 0
  %_M_start = getelementptr inbounds nuw %"struct.std::_Vector_base<double, std::allocator<double>>::_Vector_impl_data", ptr %_M_impl, i32 0, i32 0
  %0 = load ptr, ptr %_M_start, align 8, !tbaa !15
  %1 = load i64, ptr %__n.addr, align 8, !tbaa !7
  %add.ptr = getelementptr inbounds nuw double, ptr %0, i64 %1
  ret ptr %add.ptr
}

; Function Attrs: mustprogress nounwind uwtable
define linkonce_odr noundef nonnull align 8 dereferenceable(24) ptr @_ZNK8QuantLib10CurveState8rateTausEv(ptr noundef nonnull align 8 dereferenceable(64) %this) #4 comdat align 2 {
entry:
  %this.addr = alloca ptr, align 8
  store ptr %this, ptr %this.addr, align 8, !tbaa !3
  %this1 = load ptr, ptr %this.addr, align 8
  %rateTaus_ = getelementptr inbounds nuw %"class.QuantLib::CurveState", ptr %this1, i32 0, i32 3
  ret ptr %rateTaus_
}

; Function Attrs: mustprogress uwtable
define noundef double @_ZN8QuantLib19SwapForwardMappings7annuityERKNS_10CurveStateEmmm(ptr noundef nonnull align 8 dereferenceable(64) %cs, i64 noundef %startIndex, i64 noundef %endIndex, i64 noundef %numeraireIndex) #3 align 2 {
entry:
  %cs.addr = alloca ptr, align 8
  %startIndex.addr = alloca i64, align 8
  %endIndex.addr = alloca i64, align 8
  %numeraireIndex.addr = alloca i64, align 8
  %annuity = alloca double, align 8
  %i = alloca i64, align 8
  store ptr %cs, ptr %cs.addr, align 8, !tbaa !3
  store i64 %startIndex, ptr %startIndex.addr, align 8, !tbaa !7
  store i64 %endIndex, ptr %endIndex.addr, align 8, !tbaa !7
  store i64 %numeraireIndex, ptr %numeraireIndex.addr, align 8, !tbaa !7
  call void @llvm.lifetime.start.p0(i64 8, ptr %annuity) #16
  store double 0.000000e+00, ptr %annuity, align 8, !tbaa !9
  call void @llvm.lifetime.start.p0(i64 8, ptr %i) #16
  %0 = load i64, ptr %startIndex.addr, align 8, !tbaa !7
  store i64 %0, ptr %i, align 8, !tbaa !7
  br label %for.cond

for.cond:                                         ; preds = %for.inc, %entry
  %1 = load i64, ptr %i, align 8, !tbaa !7
  %2 = load i64, ptr %endIndex.addr, align 8, !tbaa !7
  %cmp = icmp ult i64 %1, %2
  br i1 %cmp, label %for.body, label %for.cond.cleanup

for.cond.cleanup:                                 ; preds = %for.cond
  call void @llvm.lifetime.end.p0(i64 8, ptr %i) #16
  br label %for.end

for.body:                                         ; preds = %for.cond
  %3 = load ptr, ptr %cs.addr, align 8, !tbaa !3
  %call = call noundef nonnull align 8 dereferenceable(24) ptr @_ZNK8QuantLib10CurveState8rateTausEv(ptr noundef nonnull align 8 dereferenceable(64) %3)
  %4 = load i64, ptr %i, align 8, !tbaa !7
  %call1 = call noundef nonnull align 8 dereferenceable(8) ptr @_ZNKSt6vectorIdSaIdEEixEm(ptr noundef nonnull align 8 dereferenceable(24) %call, i64 noundef %4) #16
  %5 = load double, ptr %call1, align 8, !tbaa !9
  %6 = load ptr, ptr %cs.addr, align 8, !tbaa !3
  %7 = load i64, ptr %i, align 8, !tbaa !7
  %add = add i64 %7, 1
  %8 = load i64, ptr %numeraireIndex.addr, align 8, !tbaa !7
  %vtable = load ptr, ptr %6, align 8, !tbaa !11
  %vfn = getelementptr inbounds ptr, ptr %vtable, i64 2
  %9 = load ptr, ptr %vfn, align 8
  %call2 = call noundef double %9(ptr noundef nonnull align 8 dereferenceable(64) %6, i64 noundef %add, i64 noundef %8)
  %10 = load double, ptr %annuity, align 8, !tbaa !9
  %11 = call double @llvm.fmuladd.f64(double %5, double %call2, double %10)
  store double %11, ptr %annuity, align 8, !tbaa !9
  br label %for.inc

for.inc:                                          ; preds = %for.body
  %12 = load i64, ptr %i, align 8, !tbaa !7
  %inc = add i64 %12, 1
  store i64 %inc, ptr %i, align 8, !tbaa !7
  br label %for.cond, !llvm.loop !13

for.end:                                          ; preds = %for.cond.cleanup
  %13 = load double, ptr %annuity, align 8, !tbaa !9
  call void @llvm.lifetime.end.p0(i64 8, ptr %annuity) #16
  ret double %13
}