; Function Attrs: mustprogress uwtable
define noundef double @_ZN8QuantLib19SwapForwardMappings7annuityERKNS_10CurveStateEmmm(ptr noundef nonnull align 8 dereferenceable(64) %cs, i64 noundef %startIndex, i64 noundef %endIndex, i64 noundef %numeraireIndex) local_unnamed_addr #4 align 2 {
entry:
  %cmp6 = icmp ult i64 %startIndex, %endIndex
  br i1 %cmp6, label %for.body.lr.ph, label %for.cond.cleanup

for.body.lr.ph:                                   ; preds = %entry
  %rateTaus_.i = getelementptr inbounds nuw i8, ptr %cs, i64 40
  br label %for.body

for.cond.cleanup:                                 ; preds = %for.body, %entry
  %annuity.0.lcssa = phi double [ 0.000000e+00, %entry ], [ %3, %for.body ]
  ret double %annuity.0.lcssa

for.body:                                         ; preds = %for.body.lr.ph, %for.body
  %i.08 = phi i64 [ %startIndex, %for.body.lr.ph ], [ %add, %for.body ]
  %annuity.07 = phi double [ 0.000000e+00, %for.body.lr.ph ], [ %3, %for.body ]
  %0 = load ptr, ptr %rateTaus_.i, align 8, !tbaa !3
  %add.ptr.i = getelementptr inbounds nuw double, ptr %0, i64 %i.08
  %1 = load double, ptr %add.ptr.i, align 8, !tbaa !8
  %add = add nuw i64 %i.08, 1
  %vtable = load ptr, ptr %cs, align 8, !tbaa !10
  %vfn = getelementptr inbounds i8, ptr %vtable, i64 16
  %2 = load ptr, ptr %vfn, align 8
  %call2 = tail call noundef double %2(ptr noundef nonnull align 8 dereferenceable(64) %cs, i64 noundef %add, i64 noundef %numeraireIndex)
  %3 = tail call double @llvm.fmuladd.f64(double %1, double %call2, double %annuity.07)
  %exitcond.not = icmp eq i64 %add, %endIndex
  br i1 %exitcond.not, label %for.cond.cleanup, label %for.body, !llvm.loop !12
}